; Function Attrs: nounwind uwtable
define dso_local i64 @rdbLoadMillisecondTime(ptr noundef %0, i32 %1) local_unnamed_addr #0 {
  %3 = alloca i64, align 8
  call void @llvm.lifetime.start.p0(i64 8, ptr nonnull %3) #23
  %4 = getelementptr inbounds nuw i8, ptr %0, i64 48
  %5 = load i64, ptr %4, align 8, !tbaa !53
  %6 = and i64 %5, 5
  %.not.i = icmp eq i64 %6, 0
  br i1 %.not.i, label %.preheader.i, label %28

.preheader.i:                                     ; preds = %2
  %7 = getelementptr inbounds nuw i8, ptr %0, i64 64
  %8 = getelementptr inbounds nuw i8, ptr %0, i64 32
  %9 = getelementptr inbounds nuw i8, ptr %0, i64 56
  br label %10

10:                                               ; preds = %22, %.preheader.i
  %.02539.i = phi i64 [ 8, %.preheader.i ], [ %24, %22 ]
  %.02738.i = phi ptr [ %3, %.preheader.i ], [ %23, %22 ]
  %11 = load i64, ptr %7, align 8, !tbaa !55
  %.not32.not.i = icmp eq i64 %11, 0
  %12 = call i64 @llvm.umin.i64(i64 %11, i64 %.02539.i)
  %13 = select i1 %.not32.not.i, i64 %.02539.i, i64 %12
  %14 = load ptr, ptr %0, align 8, !tbaa !60
  %15 = call i64 %14(ptr noundef nonnull %0, ptr noundef %.02738.i, i64 noundef %13) #23
  %16 = icmp eq i64 %15, 0
  br i1 %16, label %.thread.i, label %19

.thread.i:                                        ; preds = %10
  %17 = load i64, ptr %4, align 8, !tbaa !53
  %18 = or i64 %17, 1
  store i64 %18, ptr %4, align 8, !tbaa !53
  br label %28

19:                                               ; preds = %10
  %20 = load ptr, ptr %8, align 8, !tbaa !56
  %.not33.i = icmp eq ptr %20, null
  br i1 %.not33.i, label %22, label %21

21:                                               ; preds = %19
  call void %20(ptr noundef nonnull %0, ptr noundef %.02738.i, i64 noundef %13) #23
  br label %22

22:                                               ; preds = %21, %19
  %23 = getelementptr inbounds nuw i8, ptr %.02738.i, i64 %13
  %24 = sub i64 %.02539.i, %13
  %25 = load i64, ptr %9, align 8, !tbaa !58
  %26 = add i64 %25, %13
  store i64 %26, ptr %9, align 8, !tbaa !58
  %.not31.i = icmp eq i64 %24, 0
  br i1 %.not31.i, label %rioRead.exit, label %10

rioRead.exit:                                     ; preds = %22
  %27 = load i64, ptr %3, align 8
  br label %28

28:                                               ; preds = %.thread.i, %2, %rioRead.exit
  %29 = phi i64 [ %27, %rioRead.exit ], [ 9223372036854775807, %2 ], [ 9223372036854775807, %.thread.i ]
  call void @llvm.lifetime.end.p0(i64 8, ptr nonnull %3) #23
  ret i64 %29
}